; Function Attrs: nounwind uwtable
define hidden noundef zeroext i1 @SDL_SetDefaultTextureScaleMode_REAL(ptr noundef %0, i32 noundef %1) local_unnamed_addr #0 {
  %3 = tail call zeroext i1 @SDL_ObjectValid(ptr noundef %0, i32 noundef 2) #15
  br i1 %3, label %6, label %4

4:                                                ; preds = %2
  %5 = tail call zeroext i1 (ptr, ...) @SDL_SetError_REAL(ptr noundef nonnull @.str.2, ptr noundef nonnull @.str.5) #15
  br label %14

6:                                                ; preds = %2
  %7 = getelementptr inbounds nuw i8, ptr %0, i64 688
  %8 = load i8, ptr %7, align 8, !range !3, !noundef !4
  %9 = trunc nuw i8 %8 to i1
  br i1 %9, label %10, label %12

10:                                               ; preds = %6
  %11 = tail call zeroext i1 (ptr, ...) @SDL_SetError_REAL(ptr noundef nonnull @.str.29) #15
  br label %14

12:                                               ; preds = %6
  %13 = getelementptr inbounds nuw i8, ptr %0, i64 452
  store i32 %1, ptr %13, align 4
  br label %14

14:                                               ; preds = %12, %10, %4
  %.0 = phi i1 [ false, %10 ], [ true, %12 ], [ false, %4 ]
  ret i1 %.0
}